target datalayout = "e-m:e-p270:32:32-p271:32:32-p272:64:64-i64:64-i128:128-f80:128-n8:16:32:64-S128"
target triple = "x86_64-unknown-linux-gnu"

%"class.hermes::Value" = type { i8, %"class.hermes::Type", %"class.llvh::SmallVector" }
%"class.hermes::Type" = type { i16, i16 }
%"class.llvh::SmallVector" = type { %"class.llvh::SmallVectorImpl", %"struct.llvh::SmallVectorStorage" }
%"class.llvh::SmallVectorImpl" = type { %"class.llvh::SmallVectorTemplateBase" }
%"class.llvh::SmallVectorTemplateBase" = type { %"class.llvh::SmallVectorTemplateCommon" }
%"class.llvh::SmallVectorTemplateCommon" = type { %"class.llvh::SmallVectorBase" }
%"class.llvh::SmallVectorBase" = type { ptr, i32, i32 }
%"struct.llvh::SmallVectorStorage" = type { [2 x %"struct.llvh::AlignedCharArrayUnion"] }
%"struct.llvh::AlignedCharArrayUnion" = type { %"struct.llvh::AlignedCharArray" }
%"struct.llvh::AlignedCharArray" = type { [8 x i8] }
%"class.llvh::ilist_node_base" = type { ptr, ptr }
%"class.llvh::SMLoc" = type { ptr }
%"class.hermes::Identifier" = type { ptr }
%"class.llvh::ilist_node_impl.21" = type { %"class.llvh::ilist_node_base" }
%"class.std::shared_ptr" = type { %"class.std::__shared_ptr" }
%"class.std::__shared_ptr" = type { ptr, %"class.std::__shared_count" }
%"class.std::__shared_count" = type { ptr }
%"class.hermes::Function" = type { %"class.llvh::ilist_node_with_parent.22", %"class.hermes::Value", ptr, i8, ptr, %"class.llvh::iplist.25", %"class.llvh::SmallVector.34", %"class.hermes::Identifier", i32, i8, %"class.llvh::SMRange", i32, %"class.hermes::Identifier", ptr, i32, %"class.hermes::OptValue", [4 x i8], %"struct.hermes::LazySource", %"class.std::shared_ptr", ptr }
%"class.llvh::ilist_node_with_parent.22" = type { %"class.llvh::ilist_node.23" }
%"class.llvh::ilist_node.23" = type { %"class.llvh::ilist_node_impl.24" }
%"class.llvh::ilist_node_impl.24" = type { %"class.llvh::ilist_node_base" }
%"class.llvh::iplist.25" = type { %"class.llvh::iplist_impl.26" }
%"class.llvh::iplist_impl.26" = type { %"class.llvh::simple_ilist.31" }
%"class.llvh::simple_ilist.31" = type { %"class.llvh::ilist_sentinel.33" }
%"class.llvh::ilist_sentinel.33" = type { %"class.llvh::ilist_node_impl.21" }
%"class.llvh::SmallVector.34" = type { %"class.llvh::SmallVectorImpl.35", %"struct.llvh::SmallVectorStorage.38" }
%"class.llvh::SmallVectorImpl.35" = type { %"class.llvh::SmallVectorTemplateBase.36" }
%"class.llvh::SmallVectorTemplateBase.36" = type { %"class.llvh::SmallVectorTemplateCommon.37" }
%"class.llvh::SmallVectorTemplateCommon.37" = type { %"class.llvh::SmallVectorBase" }
%"struct.llvh::SmallVectorStorage.38" = type { [8 x %"struct.llvh::AlignedCharArrayUnion.39"] }
%"struct.llvh::AlignedCharArrayUnion.39" = type { %"struct.llvh::AlignedCharArray" }
%"class.llvh::SMRange" = type { %"class.llvh::SMLoc", %"class.llvh::SMLoc" }
%"class.hermes::OptValue" = type <{ i32, i8, [3 x i8] }>
%"struct.hermes::LazySource" = type <{ i32, i32, %"class.llvh::SMRange", i8, i8, [6 x i8] }>

; Function Attrs: mustprogress nounwind uwtable
define linkonce_odr hidden noundef ptr @_ZNK4llvh25SmallVectorTemplateCommonIPN6hermes9ParameterEvE10getFirstElEv(ptr noundef nonnull align 8 dereferenceable(16) %this) #0 comdat align 2 {
entry:
  %this.addr = alloca ptr, align 8
  store ptr %this, ptr %this.addr, align 8
  %this1 = load ptr, ptr %this.addr, align 8
  %add.ptr = getelementptr inbounds i8, ptr %this1, i64 16
  ret ptr %add.ptr
}

; Function Attrs: mustprogress nounwind uwtable
define linkonce_odr hidden void @_ZN4llvh25SmallVectorTemplateCommonIPN6hermes9ParameterEvE8grow_podEmm(ptr noundef nonnull align 8 dereferenceable(16) %this, i64 noundef %MinCapacity, i64 noundef %TSize) #0 comdat align 2 {
entry:
  %this.addr = alloca ptr, align 8
  %MinCapacity.addr = alloca i64, align 8
  %TSize.addr = alloca i64, align 8
  store ptr %this, ptr %this.addr, align 8
  store i64 %MinCapacity, ptr %MinCapacity.addr, align 8
  store i64 %TSize, ptr %TSize.addr, align 8
  %this1 = load ptr, ptr %this.addr, align 8
  %call = call noundef ptr @_ZNK4llvh25SmallVectorTemplateCommonIPN6hermes9ParameterEvE10getFirstElEv(ptr noundef nonnull align 8 dereferenceable(16) %this1)
  %0 = load i64, ptr %MinCapacity.addr, align 8
  %1 = load i64, ptr %TSize.addr, align 8
  call void @_ZN4llvh15SmallVectorBase8grow_podEPvmm(ptr noundef nonnull align 8 dereferenceable(16) %this1, ptr noundef %call, i64 noundef %0, i64 noundef %1)
  ret void
}

; Function Attrs: mustprogress nounwind uwtable
define linkonce_odr hidden void @_ZN4llvh15SmallVectorBase8set_sizeEm(ptr noundef nonnull align 8 dereferenceable(16) %this, i64 noundef %Size) #0 comdat align 2 {
entry:
  %this.addr = alloca ptr, align 8
  %Size.addr = alloca i64, align 8
  store ptr %this, ptr %this.addr, align 8
  store i64 %Size, ptr %Size.addr, align 8
  %this1 = load ptr, ptr %this.addr, align 8
  %0 = load i64, ptr %Size.addr, align 8
  %conv = trunc i64 %0 to i32
  %Size2 = getelementptr inbounds %"class.llvh::SmallVectorBase", ptr %this1, i32 0, i32 1
  store i32 %conv, ptr %Size2, align 8
  ret void
}

; Function Attrs: mustprogress nounwind uwtable
define linkonce_odr hidden void @_ZN4llvh23SmallVectorTemplateBaseIPN6hermes9ParameterELb1EE4growEm(ptr noundef nonnull align 8 dereferenceable(16) %this, i64 noundef %MinSize) #0 comdat align 2 {
entry:
  %this.addr = alloca ptr, align 8
  %MinSize.addr = alloca i64, align 8
  store ptr %this, ptr %this.addr, align 8
  store i64 %MinSize, ptr %MinSize.addr, align 8
  %this1 = load ptr, ptr %this.addr, align 8
  %0 = load i64, ptr %MinSize.addr, align 8
  call void @_ZN4llvh25SmallVectorTemplateCommonIPN6hermes9ParameterEvE8grow_podEmm(ptr noundef nonnull align 8 dereferenceable(16) %this1, i64 noundef %0, i64 noundef 8)
  ret void
}

; Function Attrs: mustprogress nounwind uwtable
define linkonce_odr hidden noundef i64 @_ZNK4llvh15SmallVectorBase8capacityEv(ptr noundef nonnull align 8 dereferenceable(16) %this) #0 comdat align 2 {
entry:
  %this.addr = alloca ptr, align 8
  store ptr %this, ptr %this.addr, align 8
  %this1 = load ptr, ptr %this.addr, align 8
  %Capacity = getelementptr inbounds %"class.llvh::SmallVectorBase", ptr %this1, i32 0, i32 2
  %0 = load i32, ptr %Capacity, align 4
  %conv = zext i32 %0 to i64
  ret i64 %conv
}

; Function Attrs: mustprogress nounwind uwtable
define linkonce_odr hidden noundef i64 @_ZNK4llvh15SmallVectorBase4sizeEv(ptr noundef nonnull align 8 dereferenceable(16) %this) #0 comdat align 2 {
entry:
  %this.addr = alloca ptr, align 8
  store ptr %this, ptr %this.addr, align 8
  %this1 = load ptr, ptr %this.addr, align 8
  %Size = getelementptr inbounds %"class.llvh::SmallVectorBase", ptr %this1, i32 0, i32 1
  %0 = load i32, ptr %Size, align 8
  %conv = zext i32 %0 to i64
  ret i64 %conv
}

; Function Attrs: mustprogress nounwind uwtable
define linkonce_odr hidden void @_ZN4llvh23SmallVectorTemplateBaseIPN6hermes9ParameterELb1EE9push_backERKS3_(ptr noundef nonnull align 8 dereferenceable(16) %this, ptr noundef nonnull align 8 dereferenceable(8) %Elt) #0 comdat align 2 {
entry:
  %this.addr.i.i = alloca ptr, align 8
  %this.addr.i = alloca ptr, align 8
  %this.addr = alloca ptr, align 8
  %Elt.addr = alloca ptr, align 8
  store ptr %this, ptr %this.addr, align 8
  store ptr %Elt, ptr %Elt.addr, align 8
  %this1 = load ptr, ptr %this.addr, align 8
  %call = call noundef i64 @_ZNK4llvh15SmallVectorBase4sizeEv(ptr noundef nonnull align 8 dereferenceable(16) %this1)
  %call2 = call noundef i64 @_ZNK4llvh15SmallVectorBase8capacityEv(ptr noundef nonnull align 8 dereferenceable(16) %this1)
  %cmp = icmp uge i64 %call, %call2
  br i1 %cmp, label %if.then, label %if.end

if.then:                                          ; preds = %entry
  call void @_ZN4llvh23SmallVectorTemplateBaseIPN6hermes9ParameterELb1EE4growEm(ptr noundef nonnull align 8 dereferenceable(16) %this1, i64 noundef 0)
  br label %if.end

if.end:                                           ; preds = %if.then, %entry
  store ptr %this1, ptr %this.addr.i, align 8
  %this1.i = load ptr, ptr %this.addr.i, align 8
  store ptr %this1.i, ptr %this.addr.i.i, align 8
  %this1.i.i = load ptr, ptr %this.addr.i.i, align 8
  %0 = load ptr, ptr %this1.i.i, align 8
  %call2.i = call noundef i64 @_ZNK4llvh15SmallVectorBase4sizeEv(ptr noundef nonnull align 8 dereferenceable(16) %this1.i)
  %add.ptr.i = getelementptr inbounds ptr, ptr %0, i64 %call2.i
  %1 = load ptr, ptr %Elt.addr, align 8
  call void @llvm.memcpy.p0.p0.i64(ptr align 1 %add.ptr.i, ptr align 8 %1, i64 8, i1 false)
  %call4 = call noundef i64 @_ZNK4llvh15SmallVectorBase4sizeEv(ptr noundef nonnull align 8 dereferenceable(16) %this1)
  %add = add i64 %call4, 1
  call void @_ZN4llvh15SmallVectorBase8set_sizeEm(ptr noundef nonnull align 8 dereferenceable(16) %this1, i64 noundef %add)
  ret void
}

; Function Attrs: mustprogress nounwind uwtable
define hidden void @_ZN6hermes8Function12addParameterEPNS_9ParameterE(ptr noundef nonnull align 8 dereferenceable(304) %this, ptr noundef %A) #0 align 2 {
entry:
  %this.addr = alloca ptr, align 8
  %A.addr = alloca ptr, align 8
  store ptr %this, ptr %this.addr, align 8
  store ptr %A, ptr %A.addr, align 8
  %this1 = load ptr, ptr %this.addr, align 8
  %Parameters = getelementptr inbounds %"class.hermes::Function", ptr %this1, i32 0, i32 6
  call void @_ZN4llvh23SmallVectorTemplateBaseIPN6hermes9ParameterELb1EE9push_backERKS3_(ptr noundef nonnull align 8 dereferenceable(16) %Parameters, ptr noundef nonnull align 8 dereferenceable(8) %A.addr)
  ret void
}