; Function Attrs: mustprogress nounwind uwtable
define hidden void @_ZN6hermes8Function12addParameterEPNS_9ParameterE(ptr noundef nonnull align 8 dereferenceable(304) %this, ptr noundef %A) local_unnamed_addr #0 align 2 {
entry:
  %Parameters = getelementptr inbounds i8, ptr %this, i64 96
  %Size.i.i = getelementptr inbounds i8, ptr %this, i64 104
  %0 = load i32, ptr %Size.i.i, align 8
  %Capacity.i.i = getelementptr inbounds i8, ptr %this, i64 108
  %1 = load i32, ptr %Capacity.i.i, align 4
  %cmp.not.i = icmp ult i32 %0, %1
  br i1 %cmp.not.i, label %_ZN4llvh23SmallVectorTemplateBaseIPN6hermes9ParameterELb1EE9push_backERKS3_.exit, label %if.then.i

if.then.i:                                        ; preds = %entry
  %add.ptr.i.i.i.i = getelementptr inbounds i8, ptr %this, i64 112
  tail call void @_ZN4llvh15SmallVectorBase8grow_podEPvmm(ptr noundef nonnull align 8 dereferenceable(16) %Parameters, ptr noundef nonnull %add.ptr.i.i.i.i, i64 noundef 0, i64 noundef 8) #26
  %.pre.i = load i32, ptr %Size.i.i, align 8
  br label %_ZN4llvh23SmallVectorTemplateBaseIPN6hermes9ParameterELb1EE9push_backERKS3_.exit

_ZN4llvh23SmallVectorTemplateBaseIPN6hermes9ParameterELb1EE9push_backERKS3_.exit: ; preds = %entry, %if.then.i
  %2 = phi i32 [ %.pre.i, %if.then.i ], [ %0, %entry ]
  %3 = load ptr, ptr %Parameters, align 8
  %conv.i3.i = zext i32 %2 to i64
  %add.ptr.i.i = getelementptr inbounds ptr, ptr %3, i64 %conv.i3.i
  %4 = ptrtoint ptr %A to i64
  store i64 %4, ptr %add.ptr.i.i, align 1
  %5 = load i32, ptr %Size.i.i, align 8
  %add.i = add i32 %5, 1
  store i32 %add.i, ptr %Size.i.i, align 8
  ret void
}